target datalayout = "e-m:e-p270:32:32-p271:32:32-p272:64:64-i64:64-i128:128-f80:128-n8:16:32:64-S128"
target triple = "x86_64-pc-linux-gnu"

%"class.net::SpdySerializedFrame" = type <{ ptr, i64, i8, [7 x i8] }>
%"class.net::(anonymous namespace)::FrameSerializationVisitor" = type { %"class.net::SpdyFrameVisitor", ptr, %"class.net::SpdySerializedFrame" }
%"class.net::SpdyFrameVisitor" = type { ptr }

; Function Attrs: mustprogress nounwind uwtable
define linkonce_odr void @_ZN3net19SpdySerializedFrameD2Ev(ptr noundef nonnull align 8 dereferenceable(17) %0) unnamed_addr #4 comdat align 2 {
  %2 = alloca ptr, align 8
  store ptr %0, ptr %2, align 8, !tbaa !253
  %3 = load ptr, ptr %2, align 8
  %4 = getelementptr inbounds nuw %"class.net::SpdySerializedFrame", ptr %3, i32 0, i32 2
  %5 = load i8, ptr %4, align 8, !tbaa !258, !range !105, !noundef !106
  %6 = trunc i8 %5 to i1
  br i1 %6, label %7, label %13

7:                                                ; preds = %1
  %8 = getelementptr inbounds nuw %"class.net::SpdySerializedFrame", ptr %3, i32 0, i32 0
  %9 = load ptr, ptr %8, align 8, !tbaa !257
  %10 = icmp eq ptr %9, null
  br i1 %10, label %12, label %11

11:                                               ; preds = %7
  call void @_ZdaPv(ptr noundef %9) #21
  br label %12

12:                                               ; preds = %11, %7
  br label %13

13:                                               ; preds = %12, %1
  ret void
}

; Function Attrs: mustprogress nounwind uwtable
define linkonce_odr noundef nonnull align 8 dereferenceable(17) ptr @_ZN3net19SpdySerializedFrameaSEOS0_(ptr noundef nonnull align 8 dereferenceable(17) %0, ptr noundef nonnull align 8 dereferenceable(17) %1) #4 comdat align 2 {
  %3 = alloca ptr, align 8
  %4 = alloca ptr, align 8
  store ptr %0, ptr %3, align 8, !tbaa !253
  store ptr %1, ptr %4, align 8, !tbaa !253
  %5 = load ptr, ptr %3, align 8
  %6 = getelementptr inbounds nuw %"class.net::SpdySerializedFrame", ptr %5, i32 0, i32 2
  %7 = load i8, ptr %6, align 8, !tbaa !258, !range !105, !noundef !106
  %8 = trunc i8 %7 to i1
  br i1 %8, label %9, label %15

9:                                                ; preds = %2
  %10 = getelementptr inbounds nuw %"class.net::SpdySerializedFrame", ptr %5, i32 0, i32 0
  %11 = load ptr, ptr %10, align 8, !tbaa !257
  %12 = icmp eq ptr %11, null
  br i1 %12, label %14, label %13

13:                                               ; preds = %9
  call void @_ZdaPv(ptr noundef %11) #21
  br label %14

14:                                               ; preds = %13, %9
  br label %15

15:                                               ; preds = %14, %2
  %16 = load ptr, ptr %4, align 8, !tbaa !253
  %17 = getelementptr inbounds nuw %"class.net::SpdySerializedFrame", ptr %16, i32 0, i32 0
  %18 = load ptr, ptr %17, align 8, !tbaa !257
  %19 = getelementptr inbounds nuw %"class.net::SpdySerializedFrame", ptr %5, i32 0, i32 0
  store ptr %18, ptr %19, align 8, !tbaa !257
  %20 = load ptr, ptr %4, align 8, !tbaa !253
  %21 = getelementptr inbounds nuw %"class.net::SpdySerializedFrame", ptr %20, i32 0, i32 1
  %22 = load i64, ptr %21, align 8, !tbaa !255
  %23 = getelementptr inbounds nuw %"class.net::SpdySerializedFrame", ptr %5, i32 0, i32 1
  store i64 %22, ptr %23, align 8, !tbaa !255
  %24 = load ptr, ptr %4, align 8, !tbaa !253
  %25 = getelementptr inbounds nuw %"class.net::SpdySerializedFrame", ptr %24, i32 0, i32 2
  %26 = load i8, ptr %25, align 8, !tbaa !258, !range !105, !noundef !106
  %27 = trunc i8 %26 to i1
  %28 = getelementptr inbounds nuw %"class.net::SpdySerializedFrame", ptr %5, i32 0, i32 2
  %29 = zext i1 %27 to i8
  store i8 %29, ptr %28, align 8, !tbaa !258
  %30 = load ptr, ptr %4, align 8, !tbaa !253
  %31 = getelementptr inbounds nuw %"class.net::SpdySerializedFrame", ptr %30, i32 0, i32 2
  store i8 0, ptr %31, align 8, !tbaa !258
  ret ptr %5
}

; Function Attrs: mustprogress uwtable
define internal void @_ZN3net12_GLOBAL__N_125FrameSerializationVisitor13VisitSettingsERKNS_14SpdySettingsIRE(ptr noundef nonnull align 8 dereferenceable(40) %0, ptr noundef nonnull align 8 dereferenceable(58) %1) unnamed_addr #0 align 2 {
  %3 = alloca ptr, align 8
  %4 = alloca ptr, align 8
  %5 = alloca %"class.net::SpdySerializedFrame", align 8
  store ptr %0, ptr %3, align 8, !tbaa !399
  store ptr %1, ptr %4, align 8, !tbaa !326
  %6 = load ptr, ptr %3, align 8
  call void @llvm.lifetime.start.p0(i64 24, ptr %5) #18
  %7 = getelementptr inbounds nuw %"class.net::(anonymous namespace)::FrameSerializationVisitor", ptr %6, i32 0, i32 1
  %8 = load ptr, ptr %7, align 8, !tbaa !401
  %9 = load ptr, ptr %4, align 8, !tbaa !326
  call void @_ZNK3net10SpdyFramer17SerializeSettingsERKNS_14SpdySettingsIRE(ptr dead_on_unwind writable sret(%"class.net::SpdySerializedFrame") align 8 %5, ptr noundef nonnull align 8 dereferenceable(259) %8, ptr noundef nonnull align 8 dereferenceable(58) %9)
  %10 = getelementptr inbounds nuw %"class.net::(anonymous namespace)::FrameSerializationVisitor", ptr %6, i32 0, i32 2
  %11 = call noundef nonnull align 8 dereferenceable(17) ptr @_ZN3net19SpdySerializedFrameaSEOS0_(ptr noundef nonnull align 8 dereferenceable(17) %10, ptr noundef nonnull align 8 dereferenceable(17) %5)
  call void @_ZN3net19SpdySerializedFrameD2Ev(ptr noundef nonnull align 8 dereferenceable(17) %5) #18
  call void @llvm.lifetime.end.p0(i64 24, ptr %5) #18
  ret void
}